target datalayout = "e-m:e-p270:32:32-p271:32:32-p272:64:64-i64:64-i128:128-f80:128-n8:16:32:64-S128"
target triple = "x86_64-pc-linux-gnu"

%struct.DdManager = type { %struct.DdNode, ptr, ptr, ptr, ptr, ptr, ptr, ptr, i32, i32, double, double, double, i32, i32, i32, i32, i32, i32, ptr, ptr, %struct.DdSubtable, i32, i32, i32, i32, i32, i32, i32, double, i32, i32, i32, ptr, i64, double, i32, ptr, ptr, ptr, ptr, ptr, ptr, ptr, i32, ptr, ptr, ptr, ptr, ptr, ptr, i32, i32, i32, double, i32, i32, i32, i32, double, double, i32, i32, i32, i32, i32, i32, i32, i32, i32, ptr, ptr, i32, i32, i32, i32, i32, i32, ptr, ptr, ptr, ptr, ptr, ptr, ptr, ptr, i32, i64, i64, i64, i32, i64, i64, double, double, double, double, double, double, i32, ptr, ptr, i64 }
%struct.DdNode = type { i32, i32, ptr, %union.anon, i64 }
%union.anon = type { %struct.DdChildren }
%struct.DdChildren = type { ptr, ptr }
%struct.DdSubtable = type { ptr, i32, i32, i32, i32, i32, i32, i32, i32, i32, i32, i32 }

; Function Attrs: nounwind uwtable
define ptr @Cudd_PrioritySelect(ptr noundef %0, ptr noundef %1, ptr noundef %2, ptr noundef %3, ptr noundef %4, ptr noundef %5, i32 noundef %6, ptr noundef %7) #0 {
  %9 = alloca ptr, align 8
  %10 = alloca ptr, align 8
  %11 = alloca ptr, align 8
  %12 = alloca ptr, align 8
  %13 = alloca ptr, align 8
  %14 = alloca ptr, align 8
  %15 = alloca ptr, align 8
  %16 = alloca i32, align 4
  %17 = alloca ptr, align 8
  %18 = alloca ptr, align 8
  %19 = alloca ptr, align 8
  %20 = alloca ptr, align 8
  %21 = alloca ptr, align 8
  %22 = alloca i32, align 4
  %23 = alloca i32, align 4
  %24 = alloca i32, align 4
  %25 = alloca ptr, align 8
  store ptr %0, ptr %10, align 8
  store ptr %1, ptr %11, align 8
  store ptr %2, ptr %12, align 8
  store ptr %3, ptr %13, align 8
  store ptr %4, ptr %14, align 8
  store ptr %5, ptr %15, align 8
  store i32 %6, ptr %16, align 4
  store ptr %7, ptr %17, align 8
  store ptr null, ptr %18, align 8
  store ptr null, ptr %19, align 8
  store i32 0, ptr %22, align 4
  store i32 0, ptr %23, align 4
  %26 = load ptr, ptr %14, align 8
  %27 = icmp eq ptr %26, null
  br i1 %27, label %28, label %84

28:                                               ; preds = %8
  %29 = load ptr, ptr %15, align 8
  %30 = icmp ne ptr %29, null
  br i1 %30, label %31, label %32

31:                                               ; preds = %28
  store ptr null, ptr %9, align 8
  br label %243

32:                                               ; preds = %28
  %33 = load i32, ptr %16, align 4
  %34 = sext i32 %33 to i64
  %35 = mul i64 8, %34
  %36 = call noalias ptr @malloc(i64 noundef %35) #5
  store ptr %36, ptr %14, align 8
  %37 = load ptr, ptr %14, align 8
  %38 = icmp eq ptr %37, null
  br i1 %38, label %39, label %42

39:                                               ; preds = %32
  %40 = load ptr, ptr %10, align 8
  %41 = getelementptr inbounds %struct.DdManager, ptr %40, i32 0, i32 86
  store i32 1, ptr %41, align 8
  store ptr null, ptr %9, align 8
  br label %243

42:                                               ; preds = %32
  store i32 1, ptr %22, align 4
  store i32 0, ptr %24, align 4
  br label %43

43:                                               ; preds = %80, %42
  %44 = load i32, ptr %24, align 4
  %45 = load i32, ptr %16, align 4
  %46 = icmp slt i32 %44, %45
  br i1 %46, label %47, label %83

47:                                               ; preds = %43
  %48 = load ptr, ptr %10, align 8
  %49 = getelementptr inbounds %struct.DdManager, ptr %48, i32 0, i32 15
  %50 = load i32, ptr %49, align 8
  %51 = icmp sge i32 %50, 2147483646
  br i1 %51, label %52, label %53

52:                                               ; preds = %47
  br label %208

53:                                               ; preds = %47
  %54 = load ptr, ptr %10, align 8
  %55 = load ptr, ptr %10, align 8
  %56 = getelementptr inbounds %struct.DdManager, ptr %55, i32 0, i32 15
  %57 = load i32, ptr %56, align 8
  %58 = load ptr, ptr %10, align 8
  %59 = getelementptr inbounds %struct.DdManager, ptr %58, i32 0, i32 1
  %60 = load ptr, ptr %59, align 8
  %61 = load ptr, ptr %10, align 8
  %62 = getelementptr inbounds %struct.DdManager, ptr %61, i32 0, i32 1
  %63 = load ptr, ptr %62, align 8
  %64 = ptrtoint ptr %63 to i64
  %65 = xor i64 %64, 1
  %66 = inttoptr i64 %65 to ptr
  %67 = call ptr @cuddUniqueInter(ptr noundef %54, i32 noundef %57, ptr noundef %60, ptr noundef %66)
  %68 = load ptr, ptr %14, align 8
  %69 = load i32, ptr %24, align 4
  %70 = sext i32 %69 to i64
  %71 = getelementptr inbounds ptr, ptr %68, i64 %70
  store ptr %67, ptr %71, align 8
  %72 = load ptr, ptr %14, align 8
  %73 = load i32, ptr %24, align 4
  %74 = sext i32 %73 to i64
  %75 = getelementptr inbounds ptr, ptr %72, i64 %74
  %76 = load ptr, ptr %75, align 8
  %77 = icmp eq ptr %76, null
  br i1 %77, label %78, label %79

78:                                               ; preds = %53
  br label %208

79:                                               ; preds = %53
  br label %80

80:                                               ; preds = %79
  %81 = load i32, ptr %24, align 4
  %82 = add nsw i32 %81, 1
  store i32 %82, ptr %24, align 4
  br label %43, !llvm.loop !4

83:                                               ; preds = %43
  br label %84

84:                                               ; preds = %83, %8
  %85 = load ptr, ptr %15, align 8
  %86 = icmp eq ptr %85, null
  br i1 %86, label %87, label %106

87:                                               ; preds = %84
  %88 = load ptr, ptr %17, align 8
  %89 = load ptr, ptr %10, align 8
  %90 = load i32, ptr %16, align 4
  %91 = load ptr, ptr %12, align 8
  %92 = load ptr, ptr %13, align 8
  %93 = load ptr, ptr %14, align 8
  %94 = call ptr %88(ptr noundef %89, i32 noundef %90, ptr noundef %91, ptr noundef %92, ptr noundef %93)
  store ptr %94, ptr %15, align 8
  %95 = load ptr, ptr %15, align 8
  %96 = icmp eq ptr %95, null
  br i1 %96, label %97, label %98

97:                                               ; preds = %87
  br label %208

98:                                               ; preds = %87
  store i32 1, ptr %23, align 4
  %99 = load ptr, ptr %15, align 8
  %100 = ptrtoint ptr %99 to i64
  %101 = and i64 %100, -2
  %102 = inttoptr i64 %101 to ptr
  %103 = getelementptr inbounds %struct.DdNode, ptr %102, i32 0, i32 1
  %104 = load i32, ptr %103, align 4
  %105 = add i32 %104, 1
  store i32 %105, ptr %103, align 4
  br label %106

106:                                              ; preds = %98, %84
  %107 = load ptr, ptr %10, align 8
  %108 = getelementptr inbounds %struct.DdManager, ptr %107, i32 0, i32 1
  %109 = load ptr, ptr %108, align 8
  store ptr %109, ptr %19, align 8
  %110 = load ptr, ptr %19, align 8
  %111 = ptrtoint ptr %110 to i64
  %112 = and i64 %111, -2
  %113 = inttoptr i64 %112 to ptr
  %114 = getelementptr inbounds %struct.DdNode, ptr %113, i32 0, i32 1
  %115 = load i32, ptr %114, align 4
  %116 = add i32 %115, 1
  store i32 %116, ptr %114, align 4
  %117 = load i32, ptr %16, align 4
  %118 = sub nsw i32 %117, 1
  store i32 %118, ptr %24, align 4
  br label %119

119:                                              ; preds = %145, %106
  %120 = load i32, ptr %24, align 4
  %121 = icmp sge i32 %120, 0
  br i1 %121, label %122, label %148

122:                                              ; preds = %119
  %123 = load ptr, ptr %10, align 8
  %124 = load ptr, ptr %14, align 8
  %125 = load i32, ptr %24, align 4
  %126 = sext i32 %125 to i64
  %127 = getelementptr inbounds ptr, ptr %124, i64 %126
  %128 = load ptr, ptr %127, align 8
  %129 = load ptr, ptr %19, align 8
  %130 = call ptr @Cudd_bddAnd(ptr noundef %123, ptr noundef %128, ptr noundef %129)
  store ptr %130, ptr %25, align 8
  %131 = load ptr, ptr %25, align 8
  %132 = icmp eq ptr %131, null
  br i1 %132, label %133, label %134

133:                                              ; preds = %122
  br label %208

134:                                              ; preds = %122
  %135 = load ptr, ptr %25, align 8
  %136 = ptrtoint ptr %135 to i64
  %137 = and i64 %136, -2
  %138 = inttoptr i64 %137 to ptr
  %139 = getelementptr inbounds %struct.DdNode, ptr %138, i32 0, i32 1
  %140 = load i32, ptr %139, align 4
  %141 = add i32 %140, 1
  store i32 %141, ptr %139, align 4
  %142 = load ptr, ptr %10, align 8
  %143 = load ptr, ptr %19, align 8
  call void @Cudd_RecursiveDeref(ptr noundef %142, ptr noundef %143)
  %144 = load ptr, ptr %25, align 8
  store ptr %144, ptr %19, align 8
  br label %145

145:                                              ; preds = %134
  %146 = load i32, ptr %24, align 4
  %147 = add nsw i32 %146, -1
  store i32 %147, ptr %24, align 4
  br label %119, !llvm.loop !6

148:                                              ; preds = %119
  %149 = load ptr, ptr %10, align 8
  %150 = load ptr, ptr %11, align 8
  %151 = load ptr, ptr %13, align 8
  %152 = load ptr, ptr %14, align 8
  %153 = load i32, ptr %16, align 4
  %154 = call ptr @Cudd_bddSwapVariables(ptr noundef %149, ptr noundef %150, ptr noundef %151, ptr noundef %152, i32 noundef %153)
  store ptr %154, ptr %20, align 8
  %155 = load ptr, ptr %20, align 8
  %156 = icmp eq ptr %155, null
  br i1 %156, label %157, label %158

157:                                              ; preds = %148
  br label %208

158:                                              ; preds = %148
  %159 = load ptr, ptr %20, align 8
  %160 = ptrtoint ptr %159 to i64
  %161 = and i64 %160, -2
  %162 = inttoptr i64 %161 to ptr
  %163 = getelementptr inbounds %struct.DdNode, ptr %162, i32 0, i32 1
  %164 = load i32, ptr %163, align 4
  %165 = add i32 %164, 1
  store i32 %165, ptr %163, align 4
  %166 = load ptr, ptr %10, align 8
  %167 = load ptr, ptr %20, align 8
  %168 = load ptr, ptr %15, align 8
  %169 = load ptr, ptr %19, align 8
  %170 = call ptr @Cudd_bddAndAbstract(ptr noundef %166, ptr noundef %167, ptr noundef %168, ptr noundef %169)
  store ptr %170, ptr %21, align 8
  %171 = load ptr, ptr %21, align 8
  %172 = icmp eq ptr %171, null
  br i1 %172, label %173, label %176

173:                                              ; preds = %158
  %174 = load ptr, ptr %10, align 8
  %175 = load ptr, ptr %20, align 8
  call void @Cudd_RecursiveDeref(ptr noundef %174, ptr noundef %175)
  br label %208

176:                                              ; preds = %158
  %177 = load ptr, ptr %21, align 8
  %178 = ptrtoint ptr %177 to i64
  %179 = and i64 %178, -2
  %180 = inttoptr i64 %179 to ptr
  %181 = getelementptr inbounds %struct.DdNode, ptr %180, i32 0, i32 1
  %182 = load i32, ptr %181, align 4
  %183 = add i32 %182, 1
  store i32 %183, ptr %181, align 4
  %184 = load ptr, ptr %10, align 8
  %185 = load ptr, ptr %20, align 8
  call void @Cudd_RecursiveDeref(ptr noundef %184, ptr noundef %185)
  %186 = load ptr, ptr %10, align 8
  %187 = load ptr, ptr %11, align 8
  %188 = load ptr, ptr %21, align 8
  %189 = ptrtoint ptr %188 to i64
  %190 = xor i64 %189, 1
  %191 = inttoptr i64 %190 to ptr
  %192 = call ptr @Cudd_bddAnd(ptr noundef %186, ptr noundef %187, ptr noundef %191)
  store ptr %192, ptr %18, align 8
  %193 = load ptr, ptr %18, align 8
  %194 = icmp eq ptr %193, null
  br i1 %194, label %195, label %198

195:                                              ; preds = %176
  %196 = load ptr, ptr %10, align 8
  %197 = load ptr, ptr %21, align 8
  call void @Cudd_RecursiveDeref(ptr noundef %196, ptr noundef %197)
  br label %208

198:                                              ; preds = %176
  %199 = load ptr, ptr %18, align 8
  %200 = ptrtoint ptr %199 to i64
  %201 = and i64 %200, -2
  %202 = inttoptr i64 %201 to ptr
  %203 = getelementptr inbounds %struct.DdNode, ptr %202, i32 0, i32 1
  %204 = load i32, ptr %203, align 4
  %205 = add i32 %204, 1
  store i32 %205, ptr %203, align 4
  %206 = load ptr, ptr %10, align 8
  %207 = load ptr, ptr %21, align 8
  call void @Cudd_RecursiveDeref(ptr noundef %206, ptr noundef %207)
  br label %208

208:                                              ; preds = %198, %195, %173, %157, %133, %97, %78, %52
  %209 = load ptr, ptr %19, align 8
  %210 = icmp ne ptr %209, null
  br i1 %210, label %211, label %214

211:                                              ; preds = %208
  %212 = load ptr, ptr %10, align 8
  %213 = load ptr, ptr %19, align 8
  call void @Cudd_RecursiveDeref(ptr noundef %212, ptr noundef %213)
  br label %214

214:                                              ; preds = %211, %208
  %215 = load i32, ptr %22, align 4
  %216 = icmp ne i32 %215, 0
  br i1 %216, label %217, label %224

217:                                              ; preds = %214
  %218 = load ptr, ptr %14, align 8
  %219 = icmp ne ptr %218, null
  br i1 %219, label %220, label %222

220:                                              ; preds = %217
  %221 = load ptr, ptr %14, align 8
  call void @free(ptr noundef %221) #6
  store ptr null, ptr %14, align 8
  br label %223

222:                                              ; preds = %217
  br label %223

223:                                              ; preds = %222, %220
  br label %224

224:                                              ; preds = %223, %214
  %225 = load i32, ptr %23, align 4
  %226 = icmp ne i32 %225, 0
  br i1 %226, label %227, label %230

227:                                              ; preds = %224
  %228 = load ptr, ptr %10, align 8
  %229 = load ptr, ptr %15, align 8
  call void @Cudd_RecursiveDeref(ptr noundef %228, ptr noundef %229)
  br label %230

230:                                              ; preds = %227, %224
  %231 = load ptr, ptr %18, align 8
  %232 = icmp ne ptr %231, null
  br i1 %232, label %233, label %241

233:                                              ; preds = %230
  %234 = load ptr, ptr %18, align 8
  %235 = ptrtoint ptr %234 to i64
  %236 = and i64 %235, -2
  %237 = inttoptr i64 %236 to ptr
  %238 = getelementptr inbounds %struct.DdNode, ptr %237, i32 0, i32 1
  %239 = load i32, ptr %238, align 4
  %240 = add i32 %239, -1
  store i32 %240, ptr %238, align 4
  br label %241

241:                                              ; preds = %233, %230
  %242 = load ptr, ptr %18, align 8
  store ptr %242, ptr %9, align 8
  br label %243

243:                                              ; preds = %241, %39, %31
  %244 = load ptr, ptr %9, align 8
  ret ptr %244
}