; Function Attrs: nounwind uwtable
define ptr @Cudd_PrioritySelect(ptr noundef %0, ptr noundef %1, ptr noundef %2, ptr noundef %3, ptr noundef %4, ptr noundef %5, i32 noundef %6, ptr noundef readonly captures(none) %7) local_unnamed_addr #0 {
  %.not132 = icmp eq ptr %4, null
  br i1 %.not132, label %9, label %.loopexit133

9:                                                ; preds = %8
  %.not = icmp eq ptr %5, null
  br i1 %.not, label %10, label %105

10:                                               ; preds = %9
  %11 = sext i32 %6 to i64
  %12 = shl nsw i64 %11, 3
  %13 = tail call noalias ptr @malloc(i64 noundef %12) #5
  %14 = icmp eq ptr %13, null
  br i1 %14, label %18, label %.preheader

.preheader:                                       ; preds = %10
  %15 = icmp sgt i32 %6, 0
  br i1 %15, label %.lr.ph, label %.loopexit133.thread

.lr.ph:                                           ; preds = %.preheader
  %16 = getelementptr inbounds nuw i8, ptr %0, i64 136
  %17 = getelementptr inbounds nuw i8, ptr %0, i64 40
  %wide.trip.count = zext nneg i32 %6 to i64
  br label %21

18:                                               ; preds = %10
  %19 = getelementptr inbounds nuw i8, ptr %0, i64 624
  store i32 1, ptr %19, align 8
  br label %105

20:                                               ; preds = %24
  %indvars.iv.next = add nuw nsw i64 %indvars.iv, 1
  %exitcond.not = icmp eq i64 %indvars.iv.next, %wide.trip.count
  br i1 %exitcond.not, label %.loopexit133, label %21, !llvm.loop !4

21:                                               ; preds = %.lr.ph, %20
  %indvars.iv = phi i64 [ 0, %.lr.ph ], [ %indvars.iv.next, %20 ]
  %22 = load i32, ptr %16, align 8
  %23 = icmp sgt i32 %22, 2147483645
  br i1 %23, label %.thread.thread, label %24

24:                                               ; preds = %21
  %25 = load ptr, ptr %17, align 8
  %26 = ptrtoint ptr %25 to i64
  %27 = xor i64 %26, 1
  %28 = inttoptr i64 %27 to ptr
  %29 = tail call ptr @cuddUniqueInter(ptr noundef nonnull %0, i32 noundef %22, ptr noundef %25, ptr noundef %28) #6
  %30 = getelementptr inbounds nuw ptr, ptr %13, i64 %indvars.iv
  store ptr %29, ptr %30, align 8
  %31 = icmp eq ptr %29, null
  br i1 %31, label %.thread.thread, label %20

.loopexit133:                                     ; preds = %20, %8
  %.084 = phi ptr [ %4, %8 ], [ %13, %20 ]
  %32 = icmp eq ptr %5, null
  br i1 %32, label %.loopexit133.thread, label %42

.loopexit133.thread:                              ; preds = %.preheader, %.loopexit133
  %.084148 = phi ptr [ %.084, %.loopexit133 ], [ %13, %.preheader ]
  %33 = tail call ptr %7(ptr noundef %0, i32 noundef %6, ptr noundef %2, ptr noundef %3, ptr noundef nonnull %.084148) #6
  %34 = icmp eq ptr %33, null
  br i1 %34, label %.thread, label %35

35:                                               ; preds = %.loopexit133.thread
  %36 = ptrtoint ptr %33 to i64
  %37 = and i64 %36, -2
  %38 = inttoptr i64 %37 to ptr
  %39 = getelementptr inbounds nuw i8, ptr %38, i64 4
  %40 = load i32, ptr %39, align 4
  %41 = add i32 %40, 1
  store i32 %41, ptr %39, align 4
  br label %42

42:                                               ; preds = %35, %.loopexit133
  %.084149 = phi ptr [ %.084148, %35 ], [ %.084, %.loopexit133 ]
  %.187 = phi ptr [ %33, %35 ], [ %5, %.loopexit133 ]
  %.181 = phi i32 [ 1, %35 ], [ 0, %.loopexit133 ]
  %43 = getelementptr inbounds nuw i8, ptr %0, i64 40
  %44 = load ptr, ptr %43, align 8
  %45 = ptrtoint ptr %44 to i64
  %46 = and i64 %45, -2
  %47 = inttoptr i64 %46 to ptr
  %48 = getelementptr inbounds nuw i8, ptr %47, i64 4
  %49 = load i32, ptr %48, align 4
  %50 = add i32 %49, 1
  store i32 %50, ptr %48, align 4
  %51 = icmp sgt i32 %6, 0
  br i1 %51, label %.lr.ph140.preheader, label %._crit_edge

.lr.ph140.preheader:                              ; preds = %42
  %52 = zext nneg i32 %6 to i64
  br label %.lr.ph140

.lr.ph140:                                        ; preds = %.lr.ph140.preheader, %57
  %indvars.iv144 = phi i64 [ %52, %.lr.ph140.preheader ], [ %indvars.iv.next145, %57 ]
  %.189138 = phi ptr [ %44, %.lr.ph140.preheader ], [ %55, %57 ]
  %indvars.iv.next145 = add nsw i64 %indvars.iv144, -1
  %53 = getelementptr inbounds nuw ptr, ptr %.084149, i64 %indvars.iv.next145
  %54 = load ptr, ptr %53, align 8
  %55 = tail call ptr @Cudd_bddAnd(ptr noundef %0, ptr noundef %54, ptr noundef %.189138) #6
  %56 = icmp eq ptr %55, null
  br i1 %56, label %.loopexit, label %57

57:                                               ; preds = %.lr.ph140
  %58 = ptrtoint ptr %55 to i64
  %59 = and i64 %58, -2
  %60 = inttoptr i64 %59 to ptr
  %61 = getelementptr inbounds nuw i8, ptr %60, i64 4
  %62 = load i32, ptr %61, align 4
  %63 = add i32 %62, 1
  store i32 %63, ptr %61, align 4
  tail call void @Cudd_RecursiveDeref(ptr noundef %0, ptr noundef %.189138) #6
  %64 = icmp samesign ugt i64 %indvars.iv144, 1
  br i1 %64, label %.lr.ph140, label %._crit_edge, !llvm.loop !6

._crit_edge:                                      ; preds = %57, %42
  %.189.lcssa = phi ptr [ %44, %42 ], [ %55, %57 ]
  %65 = tail call ptr @Cudd_bddSwapVariables(ptr noundef %0, ptr noundef %1, ptr noundef %3, ptr noundef nonnull %.084149, i32 noundef %6) #6
  %66 = icmp eq ptr %65, null
  br i1 %66, label %.loopexit, label %67

67:                                               ; preds = %._crit_edge
  %68 = ptrtoint ptr %65 to i64
  %69 = and i64 %68, -2
  %70 = inttoptr i64 %69 to ptr
  %71 = getelementptr inbounds nuw i8, ptr %70, i64 4
  %72 = load i32, ptr %71, align 4
  %73 = add i32 %72, 1
  store i32 %73, ptr %71, align 4
  %74 = tail call ptr @Cudd_bddAndAbstract(ptr noundef %0, ptr noundef nonnull %65, ptr noundef nonnull %.187, ptr noundef %.189.lcssa) #6
  %75 = icmp eq ptr %74, null
  br i1 %75, label %.loopexit.sink.split, label %76

76:                                               ; preds = %67
  %77 = ptrtoint ptr %74 to i64
  %78 = and i64 %77, -2
  %79 = inttoptr i64 %78 to ptr
  %80 = getelementptr inbounds nuw i8, ptr %79, i64 4
  %81 = load i32, ptr %80, align 4
  %82 = add i32 %81, 1
  store i32 %82, ptr %80, align 4
  tail call void @Cudd_RecursiveDeref(ptr noundef %0, ptr noundef nonnull %65) #6
  %83 = xor i64 %77, 1
  %84 = inttoptr i64 %83 to ptr
  %85 = tail call ptr @Cudd_bddAnd(ptr noundef %0, ptr noundef %1, ptr noundef %84) #6
  %86 = icmp eq ptr %85, null
  br i1 %86, label %.loopexit.sink.split, label %87

87:                                               ; preds = %76
  %88 = ptrtoint ptr %85 to i64
  %89 = and i64 %88, -2
  %90 = inttoptr i64 %89 to ptr
  %91 = getelementptr inbounds nuw i8, ptr %90, i64 4
  %92 = load i32, ptr %91, align 4
  %93 = add i32 %92, 1
  store i32 %93, ptr %91, align 4
  br label %.loopexit.sink.split

.loopexit.sink.split:                             ; preds = %76, %67, %87
  %.sink = phi ptr [ %74, %87 ], [ %65, %67 ], [ %74, %76 ]
  %.090.ph = phi ptr [ %85, %87 ], [ null, %67 ], [ null, %76 ]
  tail call void @Cudd_RecursiveDeref(ptr noundef %0, ptr noundef nonnull %.sink) #6
  br label %.loopexit

.loopexit:                                        ; preds = %.lr.ph140, %.loopexit.sink.split, %._crit_edge
  %.189135 = phi ptr [ %.189.lcssa, %._crit_edge ], [ %.189.lcssa, %.loopexit.sink.split ], [ %.189138, %.lr.ph140 ]
  %.090 = phi ptr [ null, %._crit_edge ], [ %.090.ph, %.loopexit.sink.split ], [ null, %.lr.ph140 ]
  %.not103 = icmp eq ptr %.189135, null
  br i1 %.not103, label %.thread, label %94

94:                                               ; preds = %.loopexit
  tail call void @Cudd_RecursiveDeref(ptr noundef %0, ptr noundef nonnull %.189135) #6
  br label %.thread

.thread:                                          ; preds = %.loopexit133.thread, %94, %.loopexit
  %.084150 = phi ptr [ %.084149, %94 ], [ %.084149, %.loopexit ], [ %.084148, %.loopexit133.thread ]
  %.080118 = phi i32 [ %.181, %94 ], [ %.181, %.loopexit ], [ 0, %.loopexit133.thread ]
  %.086115 = phi ptr [ %.187, %94 ], [ %.187, %.loopexit ], [ null, %.loopexit133.thread ]
  %.090114 = phi ptr [ %.090, %94 ], [ %.090, %.loopexit ], [ null, %.loopexit133.thread ]
  br i1 %.not132, label %.thread.thread, label %95

.thread.thread:                                   ; preds = %21, %24, %.thread
  %.090114130 = phi ptr [ %.090114, %.thread ], [ null, %24 ], [ null, %21 ]
  %.086115128 = phi ptr [ %.086115, %.thread ], [ null, %24 ], [ null, %21 ]
  %.185116127 = phi ptr [ %.084150, %.thread ], [ %13, %24 ], [ %13, %21 ]
  %.080118125 = phi i32 [ %.080118, %.thread ], [ 0, %24 ], [ 0, %21 ]
  tail call void @free(ptr noundef %.185116127) #6
  br label %95

95:                                               ; preds = %.thread.thread, %.thread
  %.090114131 = phi ptr [ %.090114130, %.thread.thread ], [ %.090114, %.thread ]
  %.086115129 = phi ptr [ %.086115128, %.thread.thread ], [ %.086115, %.thread ]
  %.080118126 = phi i32 [ %.080118125, %.thread.thread ], [ %.080118, %.thread ]
  %.not105 = icmp eq i32 %.080118126, 0
  br i1 %.not105, label %97, label %96

96:                                               ; preds = %95
  tail call void @Cudd_RecursiveDeref(ptr noundef %0, ptr noundef %.086115129) #6
  br label %97

97:                                               ; preds = %96, %95
  %.not106 = icmp eq ptr %.090114131, null
  br i1 %.not106, label %105, label %98

98:                                               ; preds = %97
  %99 = ptrtoint ptr %.090114131 to i64
  %100 = and i64 %99, -2
  %101 = inttoptr i64 %100 to ptr
  %102 = getelementptr inbounds nuw i8, ptr %101, i64 4
  %103 = load i32, ptr %102, align 4
  %104 = add i32 %103, -1
  store i32 %104, ptr %102, align 4
  br label %105

105:                                              ; preds = %97, %98, %9, %18
  %.0 = phi ptr [ null, %18 ], [ null, %9 ], [ %.090114131, %98 ], [ null, %97 ]
  ret ptr %.0
}